; Function Attrs: mustprogress uwtable
define void @_ZN6icu_7515CollationLoader15appendRootRulesERNS_13UnicodeStringE(ptr noundef nonnull align 8 dereferenceable(64) %s) local_unnamed_addr #1 align 2 personality ptr @__gxx_personality_v0 {
if.end.i:
  %errorCode = alloca i32, align 4
  store i32 0, ptr %errorCode, align 4
  %0 = load atomic i32, ptr @_ZN6icu_7512_GLOBAL__N_116gInitOnceUcolResE acquire, align 4
  %cmp.not.i = icmp eq i32 %0, 2
  br i1 %cmp.not.i, label %if.else.i, label %land.lhs.true.i

land.lhs.true.i:                                  ; preds = %if.end.i
  %call2.i = tail call noundef signext i8 @_ZN6icu_7520umtx_initImplPreInitERNS_9UInitOnceE(ptr noundef nonnull align 4 dereferenceable(8) @_ZN6icu_7512_GLOBAL__N_116gInitOnceUcolResE)
  %tobool3.not.i = icmp eq i8 %call2.i, 0
  br i1 %tobool3.not.i, label %if.else.i, label %if.then4.i

if.then4.i:                                       ; preds = %land.lhs.true.i
  %1 = load i32, ptr %errorCode, align 4
  %cmp.i.i3 = icmp slt i32 %1, 1
  br i1 %cmp.i.i3, label %if.end.i4, label %_ZN6icu_7515CollationLoader13loadRootRulesER10UErrorCode.exit

if.end.i4:                                        ; preds = %if.then4.i
  %call1.i = call ptr @ures_open_75(ptr noundef nonnull @.str, ptr noundef nonnull @.str.1, ptr noundef nonnull %errorCode)
  store ptr %call1.i, ptr @_ZN6icu_7512_GLOBAL__N_110rootBundleE, align 8
  %2 = load i32, ptr %errorCode, align 4
  %cmp.i5.i = icmp slt i32 %2, 1
  br i1 %cmp.i5.i, label %if.end5.i, label %_ZN6icu_7515CollationLoader13loadRootRulesER10UErrorCode.exit

if.end5.i:                                        ; preds = %if.end.i4
  %call6.i = call ptr @ures_getStringByKey_75(ptr noundef %call1.i, ptr noundef nonnull @.str.2, ptr noundef nonnull @_ZN6icu_7512_GLOBAL__N_115rootRulesLengthE, ptr noundef nonnull %errorCode)
  store ptr %call6.i, ptr @_ZN6icu_7512_GLOBAL__N_19rootRulesE, align 8
  %3 = load i32, ptr %errorCode, align 4
  %cmp.i7.i = icmp slt i32 %3, 1
  br i1 %cmp.i7.i, label %if.end10.i, label %if.then9.i

if.then9.i:                                       ; preds = %if.end5.i
  %4 = load ptr, ptr @_ZN6icu_7512_GLOBAL__N_110rootBundleE, align 8
  call void @ures_close_75(ptr noundef %4)
  store ptr null, ptr @_ZN6icu_7512_GLOBAL__N_110rootBundleE, align 8
  br label %_ZN6icu_7515CollationLoader13loadRootRulesER10UErrorCode.exit

if.end10.i:                                       ; preds = %if.end5.i
  call void @ucln_i18n_registerCleanup_75(i32 noundef 28, ptr noundef nonnull @_ZN6icu_75L16ucol_res_cleanupEv)
  br label %_ZN6icu_7515CollationLoader13loadRootRulesER10UErrorCode.exit

_ZN6icu_7515CollationLoader13loadRootRulesER10UErrorCode.exit: ; preds = %if.then4.i, %if.end.i4, %if.then9.i, %if.end10.i
  %5 = load i32, ptr %errorCode, align 4
  store i32 %5, ptr getelementptr inbounds ({ { i32 }, i32 }, ptr @_ZN6icu_7512_GLOBAL__N_116gInitOnceUcolResE, i64 0, i32 1), align 4
  call void @_ZN6icu_7521umtx_initImplPostInitERNS_9UInitOnceE(ptr noundef nonnull align 4 dereferenceable(8) @_ZN6icu_7512_GLOBAL__N_116gInitOnceUcolResE)
  %.pr.old = load i32, ptr %errorCode, align 4
  %cmp.i.old = icmp sgt i32 %.pr.old, 0
  br i1 %cmp.i.old, label %if.end, label %if.then

if.else.i:                                        ; preds = %land.lhs.true.i, %if.end.i
  %6 = load i32, ptr getelementptr inbounds ({ { i32 }, i32 }, ptr @_ZN6icu_7512_GLOBAL__N_116gInitOnceUcolResE, i64 0, i32 1), align 4
  %cmp.i9.i = icmp sgt i32 %6, 0
  %.pr = load i32, ptr %errorCode, align 4
  %cmp.i = icmp sgt i32 %.pr, 0
  %or.cond = select i1 %cmp.i9.i, i1 true, i1 %cmp.i
  br i1 %or.cond, label %if.end, label %if.then

if.then:                                          ; preds = %if.else.i, %_ZN6icu_7515CollationLoader13loadRootRulesER10UErrorCode.exit
  %7 = load ptr, ptr @_ZN6icu_7512_GLOBAL__N_19rootRulesE, align 8
  %8 = load i32, ptr @_ZN6icu_7512_GLOBAL__N_115rootRulesLengthE, align 4
  %call2.i12 = invoke noundef nonnull align 8 dereferenceable(64) ptr @_ZN6icu_7513UnicodeString8doAppendEPKDsii(ptr noundef nonnull align 8 dereferenceable(64) %s, ptr noundef %7, i32 noundef 0, i32 noundef %8)
          to label %invoke.cont unwind label %lpad

invoke.cont:                                      ; preds = %if.then
  call void asm sideeffect "", "rm,~{memory},~{dirflag},~{fpsr},~{flags}"(ptr %7) #13, !srcloc !4
  br label %if.end

lpad:                                             ; preds = %if.then
  %9 = landingpad { ptr, i32 }
          cleanup
  call void asm sideeffect "", "rm,~{memory},~{dirflag},~{fpsr},~{flags}"(ptr %7) #13, !srcloc !4
  resume { ptr, i32 } %9

if.end:                                           ; preds = %if.else.i, %invoke.cont, %_ZN6icu_7515CollationLoader13loadRootRulesER10UErrorCode.exit
  ret void
}